target datalayout = "e-m:e-p270:32:32-p271:32:32-p272:64:64-i64:64-i128:128-f80:128-n8:16:32:64-S128"
target triple = "x86_64-pc-linux-gnu"

%"class.net::QuicPacketCreator::QuicRandomBoolSource" = type { ptr, i64, i64 }

; Function Attrs: mustprogress uwtable
define noundef zeroext i1 @_ZN3net17QuicPacketCreator20QuicRandomBoolSource8RandBoolEv(ptr noundef nonnull align 8 dereferenceable(24) %0) #0 align 2 {
  %2 = alloca ptr, align 8
  %3 = alloca i8, align 1
  store ptr %0, ptr %2, align 8, !tbaa !237
  %4 = load ptr, ptr %2, align 8
  %5 = getelementptr inbounds nuw %"class.net::QuicPacketCreator::QuicRandomBoolSource", ptr %4, i32 0, i32 2
  %6 = load i64, ptr %5, align 8, !tbaa !239
  %7 = icmp eq i64 %6, 0
  br i1 %7, label %8, label %17

8:                                                ; preds = %1
  %9 = getelementptr inbounds nuw %"class.net::QuicPacketCreator::QuicRandomBoolSource", ptr %4, i32 0, i32 0
  %10 = load ptr, ptr %9, align 8, !tbaa !240
  %11 = load ptr, ptr %10, align 8, !tbaa !122
  %12 = getelementptr inbounds ptr, ptr %11, i64 3
  %13 = load ptr, ptr %12, align 8
  %14 = call noundef i64 %13(ptr noundef nonnull align 8 dereferenceable(8) %10)
  %15 = getelementptr inbounds nuw %"class.net::QuicPacketCreator::QuicRandomBoolSource", ptr %4, i32 0, i32 1
  store i64 %14, ptr %15, align 8, !tbaa !241
  %16 = getelementptr inbounds nuw %"class.net::QuicPacketCreator::QuicRandomBoolSource", ptr %4, i32 0, i32 2
  store i64 1, ptr %16, align 8, !tbaa !239
  br label %17

17:                                               ; preds = %8, %1
  call void @llvm.lifetime.start.p0(i64 1, ptr %3) #16
  %18 = getelementptr inbounds nuw %"class.net::QuicPacketCreator::QuicRandomBoolSource", ptr %4, i32 0, i32 1
  %19 = load i64, ptr %18, align 8, !tbaa !241
  %20 = getelementptr inbounds nuw %"class.net::QuicPacketCreator::QuicRandomBoolSource", ptr %4, i32 0, i32 2
  %21 = load i64, ptr %20, align 8, !tbaa !239
  %22 = and i64 %19, %21
  %23 = icmp ne i64 %22, 0
  %24 = zext i1 %23 to i8
  store i8 %24, ptr %3, align 1, !tbaa !110
  %25 = getelementptr inbounds nuw %"class.net::QuicPacketCreator::QuicRandomBoolSource", ptr %4, i32 0, i32 2
  %26 = load i64, ptr %25, align 8, !tbaa !239
  %27 = shl i64 %26, 1
  store i64 %27, ptr %25, align 8, !tbaa !239
  %28 = load i8, ptr %3, align 1, !tbaa !110, !range !111, !noundef !112
  %29 = trunc i8 %28 to i1
  call void @llvm.lifetime.end.p0(i64 1, ptr %3) #16
  ret i1 %29
}