; Function Attrs: mustprogress uwtable
define noundef zeroext i1 @_ZN3net17QuicPacketCreator20QuicRandomBoolSource8RandBoolEv(ptr noundef nonnull align 8 captures(none) dereferenceable(24) %0) local_unnamed_addr #0 align 2 {
  %2 = getelementptr inbounds nuw i8, ptr %0, i64 16
  %3 = load i64, ptr %2, align 8, !tbaa !189
  %4 = icmp eq i64 %3, 0
  br i1 %4, label %5, label %._crit_edge

._crit_edge:                                      ; preds = %1
  %.phi.trans.insert = getelementptr inbounds nuw i8, ptr %0, i64 8
  %.pre = load i64, ptr %.phi.trans.insert, align 8, !tbaa !190
  br label %12

5:                                                ; preds = %1
  %6 = load ptr, ptr %0, align 8, !tbaa !191
  %7 = load ptr, ptr %6, align 8, !tbaa !123
  %8 = getelementptr inbounds nuw i8, ptr %7, i64 24
  %9 = load ptr, ptr %8, align 8
  %10 = tail call noundef i64 %9(ptr noundef nonnull align 8 dereferenceable(8) %6)
  %11 = getelementptr inbounds nuw i8, ptr %0, i64 8
  store i64 %10, ptr %11, align 8, !tbaa !190
  br label %12

12:                                               ; preds = %._crit_edge, %5
  %13 = phi i64 [ %3, %._crit_edge ], [ 1, %5 ]
  %14 = phi i64 [ %.pre, %._crit_edge ], [ %10, %5 ]
  %15 = and i64 %13, %14
  %16 = icmp ne i64 %15, 0
  %17 = shl i64 %13, 1
  store i64 %17, ptr %2, align 8, !tbaa !189
  ret i1 %16
}